ccopy_reg
_reconstructor
p0
(cFWCore.ParameterSet.Config
Process
p1
c__builtin__
object
p2
Ntp3
Rp4
(dp5
S'MessageLogger'
p6
g0
(cFWCore.ParameterSet.Modules
Service
p7
g2
Ntp8
Rp9
(dp10
S'_isFrozen'
p11
I00
sS'suppressInfo'
p12
g0
(cFWCore.ParameterSet.Types
vstring
p13
c__builtin__
list
p14
(lp15
tp16
Rp17
(dp18
g11
I00
sS'_ParameterTypeBase__isTracked'
p19
I00
sS'_isModified'
p20
I00
sS'_nPerLine'
p21
I1
sbsS'suppressDebug'
p22
g0
(g13
g14
(lp23
tp24
Rp25
(dp26
g11
I00
sg19
I00
sg20
I00
sg21
I1
sbsS'cout'
p27
g0
(cFWCore.ParameterSet.Types
PSet
p28
g2
Ntp29
Rp30
(dp31
g11
I00
sg19
I00
sS'placeholder'
p32
g0
(cFWCore.ParameterSet.Types
bool
p33
g2
Ntp34
Rp35
(dp36
g11
I00
sg19
I00
sS'_value'
p37
I01
sg20
I00
sbsg20
I00
sS'_Parameterizable__parameterNames'
p38
(lp39
g32
asbsS'_lineNumber'
p40
I10
sS'debugModules'
p41
g0
(g13
g14
(lp42
tp43
Rp44
(dp45
g11
I00
sg19
I00
sg20
I00
sg21
I1
sbsS'_TypedParameterizable__type'
p46
g6
sS'fwkJobReports'
p47
g0
(g13
g14
(lp48
S'FrameworkJobReport'
p49
atp50
Rp51
(dp52
g11
I00
sg19
I00
sg20
I00
sg21
I1
sbsg38
(lp53
g12
aS'debugs'
p54
ag22
ag27
aS'cerr_stats'
p55
aS'warnings'
p56
aS'default'
p57
aS'statistics'
p58
aS'cerr'
p59
ag49
aS'suppressWarning'
p60
aS'errors'
p61
aS'destinations'
p62
ag41
aS'infos'
p63
aS'categories'
p64
ag47
asg58
g0
(g13
g14
(lp65
g55
atp66
Rp67
(dp68
g11
I00
sg19
I00
sg20
I00
sg21
I1
sbsS'_filename'
p69
S'/cvmfs/cms.cern.ch/slc6_amd64_gcc481/cms/cmssw/CMSSW_7_2_0/python/FWCore/ParameterSet/Modules.py'
p70
sg62
g0
(g13
g14
(lp71
g56
ag61
ag63
ag54
ag27
ag59
atp72
Rp73
(dp74
g11
I00
sg19
I00
sg20
I00
sg21
I1
sbsg54
g0
(g28
g2
Ntp75
Rp76
(dp77
g11
I00
sg19
I00
sg32
g0
(g33
g2
Ntp78
Rp79
(dp80
g11
I00
sg19
I00
sg37
I01
sg20
I00
sbsg20
I00
sg38
(lp81
g32
asbsg56
g0
(g28
g2
Ntp82
Rp83
(dp84
g11
I00
sg19
I00
sg32
g0
(g33
g2
Ntp85
Rp86
(dp87
g11
I00
sg19
I00
sg37
I01
sg20
I00
sbsg20
I00
sg38
(lp88
g32
asbsg61
g0
(g28
g2
Ntp89
Rp90
(dp91
g11
I00
sg19
I00
sg32
g0
(g33
g2
Ntp92
Rp93
(dp94
g11
I00
sg19
I00
sg37
I01
sg20
I00
sbsg20
I00
sg38
(lp95
g32
asbsg49
g0
(g28
g2
Ntp96
Rp97
(dp98
g11
I00
sg19
I00
sg20
I00
sg57
g0
(g28
g2
Ntp99
Rp100
(dp101
g11
I00
sg19
I00
sS'limit'
p102
g0
(cFWCore.ParameterSet.Types
int32
p103
g2
Ntp104
Rp105
(dp106
g11
I00
sg19
I00
sg37
I0
sg20
I00
sbsg20
I00
sg38
(lp107
g102
asbsS'FwkJob'
p108
g0
(g28
g2
Ntp109
Rp110
(dp111
g11
I00
sg19
I00
sg20
I00
sg102
g0
(g103
g2
Ntp112
Rp113
(dp114
g11
I00
sg19
I00
sg37
I10000000
sg20
I00
sbsg38
(lp115
S'optionalPSet'
p116
ag102
asg116
g0
(g33
g2
Ntp117
Rp118
(dp119
g11
I00
sg19
I00
sg37
I01
sg20
I00
sbsbsg38
(lp120
g57
ag116
ag108
asg116
g0
(g33
g2
Ntp121
Rp122
(dp123
g11
I00
sg19
I00
sg37
I01
sg20
I00
sbsbsg60
g0
(g13
g14
(lp124
tp125
Rp126
(dp127
g11
I00
sg19
I00
sg20
I00
sg21
I1
sbsg63
g0
(g28
g2
Ntp128
Rp129
(dp130
g11
I00
sg19
I00
sg20
I00
sS'Root_NoDictionary'
p131
g0
(g28
g2
Ntp132
Rp133
(dp134
g11
I00
sg19
I00
sg20
I00
sg102
g0
(g103
g2
Ntp135
Rp136
(dp137
g11
I00
sg19
I00
sg37
I0
sg20
I00
sbsg38
(lp138
g116
ag102
asg116
g0
(g33
g2
Ntp139
Rp140
(dp141
g11
I00
sg19
I00
sg37
I01
sg20
I00
sbsbsg38
(lp142
g116
ag131
ag32
asg116
g0
(g33
g2
Ntp143
Rp144
(dp145
g11
I00
sg19
I00
sg37
I01
sg20
I00
sbsg32
g0
(g33
g2
Ntp146
Rp147
(dp148
g11
I00
sg19
I00
sg37
I01
sg20
I00
sbsbsg64
g0
(g13
g14
(lp149
g108
aS'FwkReport'
p150
aS'FwkSummary'
p151
ag131
atp152
Rp153
(dp154
g11
I00
sg19
I00
sg20
I00
sg21
I1
sbsg20
I00
sg55
g0
(g28
g2
Ntp155
Rp156
(dp157
g11
I00
sg19
I00
sg20
I00
sg116
g0
(g33
g2
Ntp158
Rp159
(dp160
g11
I00
sg19
I00
sg37
I01
sg20
I00
sbsg38
(lp161
S'threshold'
p162
aS'output'
p163
ag116
asg162
g0
(cFWCore.ParameterSet.Types
string
p164
g2
Ntp165
Rp166
(dp167
g11
I00
sg19
I00
sg37
S'WARNING'
p168
sg20
I00
sbsg163
g0
(g164
g2
Ntp169
Rp170
(dp171
g11
I00
sg19
I00
sg37
g59
sg20
I00
sbsbsg57
g0
(g28
g2
Ntp172
Rp173
(dp174
g11
I00
sg19
I00
sg20
I00
sg38
(lp175
sbsg59
g0
(g28
g2
Ntp176
Rp177
(dp178
g11
I00
sg19
I00
sS'noTimeStamps'
p179
g0
(g33
g2
Ntp180
Rp181
(dp182
g11
I00
sg19
I00
sg37
I00
sg20
I00
sbsg150
g0
(g28
g2
Ntp183
Rp184
(dp185
g11
I00
sg19
I00
sg20
I01
sS'reportEvery'
p186
g0
(g103
g2
Ntp187
Rp188
(dp189
g11
I00
sg19
I00
sg37
I100
sg20
I00
sbsg102
g0
(g103
g2
Ntp190
Rp191
(dp192
g11
I00
sg19
I00
sg37
I10000000
sg20
I00
sbsg38
(lp193
g186
ag116
ag102
asg116
g0
(g33
g2
Ntp194
Rp195
(dp196
g11
I00
sg19
I00
sg37
I01
sg20
I00
sbsbsg20
I01
sg57
g0
(g28
g2
Ntp197
Rp198
(dp199
g11
I00
sg19
I00
sg102
g0
(g103
g2
Ntp200
Rp201
(dp202
g11
I00
sg19
I00
sg37
I10000000
sg20
I00
sbsg20
I00
sg38
(lp203
g102
asbsg131
g0
(g28
g2
Ntp204
Rp205
(dp206
g11
I00
sg19
I00
sg20
I00
sg102
g0
(g103
g2
Ntp207
Rp208
(dp209
g11
I00
sg19
I00
sg37
I0
sg20
I00
sbsg38
(lp210
g116
ag102
asg116
g0
(g33
g2
Ntp211
Rp212
(dp213
g11
I00
sg19
I00
sg37
I01
sg20
I00
sbsbsS'INFO'
p214
g0
(g28
g2
Ntp215
Rp216
(dp217
g11
I00
sg19
I00
sg102
g0
(g103
g2
Ntp218
Rp219
(dp220
g11
I00
sg19
I00
sg37
I0
sg20
I00
sbsg20
I00
sg38
(lp221
g102
asbsg116
g0
(g33
g2
Ntp222
Rp223
(dp224
g11
I00
sg19
I00
sg37
I01
sg20
I00
sbsg108
g0
(g28
g2
Ntp225
Rp226
(dp227
g11
I00
sg19
I00
sg20
I00
sg102
g0
(g103
g2
Ntp228
Rp229
(dp230
g11
I00
sg19
I00
sg37
I0
sg20
I00
sbsg38
(lp231
g116
ag102
asg116
g0
(g33
g2
Ntp232
Rp233
(dp234
g11
I00
sg19
I00
sg37
I01
sg20
I00
sbsbsg151
g0
(g28
g2
Ntp235
Rp236
(dp237
g11
I00
sg19
I00
sg20
I00
sg186
g0
(g103
g2
Ntp238
Rp239
(dp240
g11
I00
sg19
I00
sg37
I1
sg20
I00
sbsg102
g0
(g103
g2
Ntp241
Rp242
(dp243
g11
I00
sg19
I00
sg37
I10000000
sg20
I00
sbsg38
(lp244
g186
ag116
ag102
asg116
g0
(g33
g2
Ntp245
Rp246
(dp247
g11
I00
sg19
I00
sg37
I01
sg20
I00
sbsbsg38
(lp248
g214
ag179
ag150
ag57
ag131
ag162
ag108
ag151
ag116
asg162
g0
(g164
g2
Ntp249
Rp250
(dp251
g11
I00
sg19
I00
sg37
g214
sg20
I00
sbsbsbsS'_Process__sequences'
p252
(dp253
sS'_Process__services'
p254
(dp255
g6
g9
sS'DQMStore'
p256
g0
(g7
g2
Ntp257
Rp258
(dp259
g38
(lp260
S'referenceFileName'
p261
aS'verbose'
p262
aS'collateHistograms'
p263
aS'enableMultiThread'
p264
aS'forceResetOnBeginLumi'
p265
aS'LSbasedMode'
p266
aS'verboseQT'
p267
asg11
I00
sg262
g0
(g103
g2
Ntp268
Rp269
(dp270
g11
I00
sg19
I00
sg37
I0
sg20
I00
sbsg263
g0
(g33
g2
Ntp271
Rp272
(dp273
g11
I00
sg19
I00
sg37
I00
sg20
I00
sbsg261
g0
(g164
g2
Ntp274
Rp275
(dp276
g11
I00
sg19
I00
sg37
S''
p277
sg20
I00
sbsg264
g0
(g33
g2
Ntp278
Rp279
(dp280
g11
I00
sg19
I00
sg37
I00
sg20
I00
sbsg265
g0
(g33
g2
Ntp281
Rp282
(dp283
g11
I00
sg19
I00
sg37
I00
sg20
I00
sbsg40
I10
sg266
g0
(g33
g2
Ntp284
Rp285
(dp286
g11
I00
sg19
I00
sg37
I00
sg20
I00
sbsg69
g70
sg267
g0
(g103
g2
Ntp287
Rp288
(dp289
g11
I00
sg19
I00
sg37
I0
sg20
I00
sbsg46
g256
sg20
I00
sbsS'RandomNumberGeneratorService'
p290
g0
(g7
g2
Ntp291
Rp292
(dp293
g11
I00
sS'horeco'
p294
g0
(g28
g2
Ntp295
Rp296
(dp297
g11
I00
sg19
I01
sg20
I00
sS'initialSeed'
p298
g0
(cFWCore.ParameterSet.Types
uint32
p299
g2
Ntp300
Rp301
(dp302
g11
I00
sg19
I00
sg37
I541321
sg20
I00
sbsg38
(lp303
g298
aS'engineName'
p304
asg304
g0
(g164
g2
Ntp305
Rp306
(dp307
g11
I00
sg19
I00
sg37
S'TRandom3'
p308
sg20
I00
sbsbsg40
I10
sS'paramMuons'
p309
g0
(g28
g2
Ntp310
Rp311
(dp312
g11
I00
sg19
I01
sg20
I00
sg298
g0
(g299
g2
Ntp313
Rp314
(dp315
g11
I00
sg19
I00
sg37
I54525
sg20
I00
sbsg38
(lp316
g298
ag304
asg304
g0
(g164
g2
Ntp317
Rp318
(dp319
g11
I00
sg19
I00
sg37
g308
sg20
I00
sbsbsS'saveFileName'
p320
g0
(g164
g2
Ntp321
Rp322
(dp323
g11
I00
sg19
I00
sg37
g277
sg20
I00
sbsS'hbhereco'
p324
g0
(g28
g2
Ntp325
Rp326
(dp327
g11
I00
sg19
I01
sg20
I00
sg298
g0
(g299
g2
Ntp328
Rp329
(dp330
g11
I00
sg19
I00
sg37
I541321
sg20
I00
sbsg38
(lp331
g298
ag304
asg304
g0
(g164
g2
Ntp332
Rp333
(dp334
g11
I00
sg19
I00
sg37
g308
sg20
I00
sbsbsS'simSiStripDigiSimLink'
p335
g0
(g28
g2
Ntp336
Rp337
(dp338
g11
I00
sg19
I01
sg20
I00
sg298
g0
(g299
g2
Ntp339
Rp340
(dp341
g11
I00
sg19
I00
sg37
I1234567
sg20
I00
sbsg38
(lp342
g298
ag304
asg304
g0
(g164
g2
Ntp343
Rp344
(dp345
g11
I00
sg19
I00
sg37
S'HepJamesRandom'
p346
sg20
I00
sbsbsS'externalLHEProducer'
p347
g0
(g28
g2
Ntp348
Rp349
(dp350
g11
I00
sg19
I01
sg20
I00
sg298
g0
(g299
g2
Ntp351
Rp352
(dp353
g11
I00
sg19
I00
sg37
I234567
sg20
I00
sbsg38
(lp354
g298
ag304
asg304
g0
(g164
g2
Ntp355
Rp356
(dp357
g11
I00
sg19
I00
sg37
g346
sg20
I00
sbsbsS'famosPileUp'
p358
g0
(g28
g2
Ntp359
Rp360
(dp361
g11
I00
sg19
I01
sg20
I00
sg298
g0
(g299
g2
Ntp362
Rp363
(dp364
g11
I00
sg19
I00
sg37
I918273
sg20
I00
sbsg38
(lp365
g298
ag304
asg304
g0
(g164
g2
Ntp366
Rp367
(dp368
g11
I00
sg19
I00
sg37
g308
sg20
I00
sbsbsS'simMuonDTDigis'
p369
g0
(g28
g2
Ntp370
Rp371
(dp372
g11
I00
sg19
I01
sg20
I00
sg298
g0
(g299
g2
Ntp373
Rp374
(dp375
g11
I00
sg19
I00
sg37
I1234567
sg20
I00
sbsg38
(lp376
g298
ag304
asg304
g0
(g164
g2
Ntp377
Rp378
(dp379
g11
I00
sg19
I00
sg37
g346
sg20
I00
sbsbsg46
g290
sS'siTrackerGaussianSmearingRecHits'
p380
g0
(g28
g2
Ntp381
Rp382
(dp383
g11
I00
sg19
I01
sg20
I00
sg298
g0
(g299
g2
Ntp384
Rp385
(dp386
g11
I00
sg19
I00
sg37
I24680
sg20
I00
sbsg38
(lp387
g298
ag304
asg304
g0
(g164
g2
Ntp388
Rp389
(dp390
g11
I00
sg19
I00
sg37
g308
sg20
I00
sbsbsg38
(lp391
g294
ag309
ag320
ag324
ag335
ag347
ag358
ag369
ag380
aS'ecalPreshowerRecHit'
p392
aS'generator'
p393
aS'simMuonRPCDigis'
p394
aS'hiSignal'
p395
aS'mixSimCaloHits'
p396
aS'mix'
p397
aS'VtxSmeared'
p398
aS'LHCTransport'
p399
aS'ecalRecHit'
p400
aS'hfreco'
p401
aS'mixRecoTracks'
p402
aS'hiSignalG4SimHits'
p403
aS'famosSimHits'
p404
aS'MuonSimHits'
p405
aS'g4SimHits'
p406
aS'hiSignalLHCTransport'
p407
aS'mixGenPU'
p408
aS'l1ParamMuons'
p409
aS'simBeamSpotFilter'
p410
aS'simMuonCSCDigis'
p411
aS'mixData'
p412
asg392
g0
(g28
g2
Ntp413
Rp414
(dp415
g11
I00
sg19
I01
sg20
I00
sg298
g0
(g299
g2
Ntp416
Rp417
(dp418
g11
I00
sg19
I00
sg37
I6541321
sg20
I00
sbsg38
(lp419
g298
ag304
asg304
g0
(g164
g2
Ntp420
Rp421
(dp422
g11
I00
sg19
I00
sg37
g308
sg20
I00
sbsbsg393
g0
(g28
g2
Ntp423
Rp424
(dp425
g11
I00
sg19
I01
sg20
I00
sg298
g0
(g299
g2
Ntp426
Rp427
(dp428
g11
I00
sg19
I00
sg37
I123456789
sg20
I00
sbsg38
(lp429
g298
ag304
asg304
g0
(g164
g2
Ntp430
Rp431
(dp432
g11
I00
sg19
I00
sg37
g346
sg20
I00
sbsbsg394
g0
(g28
g2
Ntp433
Rp434
(dp435
g11
I00
sg19
I01
sg20
I00
sg298
g0
(g299
g2
Ntp436
Rp437
(dp438
g11
I00
sg19
I00
sg37
I1234567
sg20
I00
sbsg38
(lp439
g298
ag304
asg304
g0
(g164
g2
Ntp440
Rp441
(dp442
g11
I00
sg19
I00
sg37
g346
sg20
I00
sbsbsg395
g0
(g28
g2
Ntp443
Rp444
(dp445
g11
I00
sg19
I01
sg20
I00
sg298
g0
(g299
g2
Ntp446
Rp447
(dp448
g11
I00
sg19
I00
sg37
I123456789
sg20
I00
sbsg38
(lp449
g298
ag304
asg304
g0
(g164
g2
Ntp450
Rp451
(dp452
g11
I00
sg19
I00
sg37
g346
sg20
I00
sbsbsg396
g0
(g28
g2
Ntp453
Rp454
(dp455
g11
I00
sg19
I01
sg20
I00
sg298
g0
(g299
g2
Ntp456
Rp457
(dp458
g11
I00
sg19
I00
sg37
I918273
sg20
I00
sbsg38
(lp459
g298
ag304
asg304
g0
(g164
g2
Ntp460
Rp461
(dp462
g11
I00
sg19
I00
sg37
g308
sg20
I00
sbsbsg397
g0
(g28
g2
Ntp463
Rp464
(dp465
g11
I00
sg19
I01
sg20
I00
sg298
g0
(g299
g2
Ntp466
Rp467
(dp468
g11
I00
sg19
I00
sg37
I12345
sg20
I00
sbsg38
(lp469
g298
ag304
asg304
g0
(g164
g2
Ntp470
Rp471
(dp472
g11
I00
sg19
I00
sg37
g346
sg20
I00
sbsbsg398
g0
(g28
g2
Ntp473
Rp474
(dp475
g11
I00
sg19
I01
sg20
I00
sg298
g0
(g299
g2
Ntp476
Rp477
(dp478
g11
I00
sg19
I00
sg37
I98765432
sg20
I00
sbsg38
(lp479
g298
ag304
asg304
g0
(g164
g2
Ntp480
Rp481
(dp482
g11
I00
sg19
I00
sg37
g346
sg20
I00
sbsbsg399
g0
(g28
g2
Ntp483
Rp484
(dp485
g11
I00
sg19
I01
sg20
I00
sg298
g0
(g299
g2
Ntp486
Rp487
(dp488
g11
I00
sg19
I00
sg37
I87654321
sg20
I00
sbsg38
(lp489
g298
ag304
asg304
g0
(g164
g2
Ntp490
Rp491
(dp492
g11
I00
sg19
I00
sg37
g308
sg20
I00
sbsbsg400
g0
(g28
g2
Ntp493
Rp494
(dp495
g11
I00
sg19
I01
sg20
I00
sg298
g0
(g299
g2
Ntp496
Rp497
(dp498
g11
I00
sg19
I00
sg37
I654321
sg20
I00
sbsg38
(lp499
g298
ag304
asg304
g0
(g164
g2
Ntp500
Rp501
(dp502
g11
I00
sg19
I00
sg37
g308
sg20
I00
sbsbsg412
g0
(g28
g2
Ntp503
Rp504
(dp505
g11
I00
sg19
I01
sg20
I00
sg298
g0
(g299
g2
Ntp506
Rp507
(dp508
g11
I00
sg19
I00
sg37
I12345
sg20
I00
sbsg38
(lp509
g298
ag304
asg304
g0
(g164
g2
Ntp510
Rp511
(dp512
g11
I00
sg19
I00
sg37
g346
sg20
I00
sbsbsg402
g0
(g28
g2
Ntp513
Rp514
(dp515
g11
I00
sg19
I01
sg20
I00
sg298
g0
(g299
g2
Ntp516
Rp517
(dp518
g11
I00
sg19
I00
sg37
I918273
sg20
I00
sbsg38
(lp519
g298
ag304
asg304
g0
(g164
g2
Ntp520
Rp521
(dp522
g11
I00
sg19
I00
sg37
g308
sg20
I00
sbsbsg403
g0
(g28
g2
Ntp523
Rp524
(dp525
g11
I00
sg19
I01
sg20
I00
sg298
g0
(g299
g2
Ntp526
Rp527
(dp528
g11
I00
sg19
I00
sg37
I11
sg20
I00
sbsg38
(lp529
g298
ag304
asg304
g0
(g164
g2
Ntp530
Rp531
(dp532
g11
I00
sg19
I00
sg37
g346
sg20
I00
sbsbsg404
g0
(g28
g2
Ntp533
Rp534
(dp535
g11
I00
sg19
I01
sg20
I00
sg298
g0
(g299
g2
Ntp536
Rp537
(dp538
g11
I00
sg19
I00
sg37
I13579
sg20
I00
sbsg38
(lp539
g298
ag304
asg304
g0
(g164
g2
Ntp540
Rp541
(dp542
g11
I00
sg19
I00
sg37
g308
sg20
I00
sbsbsg405
g0
(g28
g2
Ntp543
Rp544
(dp545
g11
I00
sg19
I01
sg20
I00
sg298
g0
(g299
g2
Ntp546
Rp547
(dp548
g11
I00
sg19
I00
sg37
I987346
sg20
I00
sbsg38
(lp549
g298
ag304
asg304
g0
(g164
g2
Ntp550
Rp551
(dp552
g11
I00
sg19
I00
sg37
g308
sg20
I00
sbsbsg406
g0
(g28
g2
Ntp553
Rp554
(dp555
g11
I00
sg19
I01
sg20
I00
sg298
g0
(g299
g2
Ntp556
Rp557
(dp558
g11
I00
sg19
I00
sg37
I11
sg20
I00
sbsg38
(lp559
g298
ag304
asg304
g0
(g164
g2
Ntp560
Rp561
(dp562
g11
I00
sg19
I00
sg37
g346
sg20
I00
sbsbsg407
g0
(g28
g2
Ntp563
Rp564
(dp565
g11
I00
sg19
I01
sg20
I00
sg298
g0
(g299
g2
Ntp566
Rp567
(dp568
g11
I00
sg19
I00
sg37
I88776655
sg20
I00
sbsg38
(lp569
g298
ag304
asg304
g0
(g164
g2
Ntp570
Rp571
(dp572
g11
I00
sg19
I00
sg37
g308
sg20
I00
sbsbsg408
g0
(g28
g2
Ntp573
Rp574
(dp575
g11
I00
sg19
I01
sg20
I00
sg298
g0
(g299
g2
Ntp576
Rp577
(dp578
g11
I00
sg19
I00
sg37
I918273
sg20
I00
sbsg38
(lp579
g298
ag304
asg304
g0
(g164
g2
Ntp580
Rp581
(dp582
g11
I00
sg19
I00
sg37
g308
sg20
I00
sbsbsg409
g0
(g28
g2
Ntp583
Rp584
(dp585
g11
I00
sg19
I01
sg20
I00
sg298
g0
(g299
g2
Ntp586
Rp587
(dp588
g11
I00
sg19
I00
sg37
I6453209
sg20
I00
sbsg38
(lp589
g298
ag304
asg304
g0
(g164
g2
Ntp590
Rp591
(dp592
g11
I00
sg19
I00
sg37
g308
sg20
I00
sbsbsg20
I00
sg410
g0
(g28
g2
Ntp593
Rp594
(dp595
g11
I00
sg19
I01
sg20
I00
sg298
g0
(g299
g2
Ntp596
Rp597
(dp598
g11
I00
sg19
I00
sg37
I87654321
sg20
I00
sbsg38
(lp599
g298
ag304
asg304
g0
(g164
g2
Ntp600
Rp601
(dp602
g11
I00
sg19
I00
sg37
g346
sg20
I00
sbsbsg411
g0
(g28
g2
Ntp603
Rp604
(dp605
g11
I00
sg19
I01
sg20
I00
sg298
g0
(g299
g2
Ntp606
Rp607
(dp608
g11
I00
sg19
I00
sg37
I11223344
sg20
I00
sbsg38
(lp609
g298
ag304
asg304
g0
(g164
g2
Ntp610
Rp611
(dp612
g11
I00
sg19
I00
sg37
g346
sg20
I00
sbsbsg401
g0
(g28
g2
Ntp613
Rp614
(dp615
g11
I00
sg19
I01
sg20
I00
sg298
g0
(g299
g2
Ntp616
Rp617
(dp618
g11
I00
sg19
I00
sg37
I541321
sg20
I00
sbsg38
(lp619
g298
ag304
asg304
g0
(g164
g2
Ntp620
Rp621
(dp622
g11
I00
sg19
I00
sg37
g308
sg20
I00
sbsbsg69
g70
sbssg256
g258
sS'_Process__source'
p623
g0
(cFWCore.ParameterSet.Modules
Source
p624
g2
Ntp625
Rp626
(dp627
g38
(lp628
S'fileNames'
p629
aS'skipEvents'
p630
asg11
I00
sg20
I01
sg40
I175
sg69
g70
sg630
g0
(g299
g2
Ntp631
Rp632
(dp633
g11
I00
sg19
I00
sg37
I0
sg20
I00
sbsg629
g0
(g13
g14
(lp634
S'file:HH-bbWW-100_0407.root'
p635
atp636
Rp637
(dp638
g11
I00
sg19
I00
sg20
I00
sg21
I1
sbsg46
S'PoolSource'
p639
sbsS'_Process__aliases'
p640
(dp641
sS'outpath'
p642
g0
(cFWCore.ParameterSet.SequenceTypes
EndPath
p643
g2
Ntp644
Rp645
(dp646
g11
I00
sS'_seq'
p647
g0
(cFWCore.ParameterSet.SequenceTypes
_SequenceCollection
p648
g2
Ntp649
Rp650
(dp651
S'_collection'
p652
(lp653
g0
(cFWCore.ParameterSet.Modules
OutputModule
p654
g2
Ntp655
Rp656
(dp657
g38
(lp658
S'fileName'
p659
asg11
I00
sg20
I00
sg40
I19
sg69
S'addGenParticles_.py'
p660
sg659
g0
(g164
g2
Ntp661
Rp662
(dp663
g11
I00
sg19
I00
sg37
S'HH-bbWW-Gen-100_0407_testcrab.root'
p664
sg20
I00
sbsS'_Labelable__label'
p665
S'GEN'
p666
sg46
S'PoolOutputModule'
p667
sbasbsg20
I00
sg665
g642
sbsS'genParticles'
p668
g0
(cFWCore.ParameterSet.Modules
EDProducer
p669
g2
Ntp670
Rp671
(dp672
g38
(lp673
S'saveBarCodes'
p674
aS'src'
p675
aS'abortOnUnknownPDGCode'
p676
asg11
I00
sg20
I01
sg674
g0
(g33
g2
Ntp677
Rp678
(dp679
g11
I00
sg19
I00
sg37
I01
sg20
I00
sbsg675
g0
(cFWCore.ParameterSet.Types
InputTag
p680
g2
Ntp681
Rp682
(dp683
g11
I00
sg19
I01
sg20
I00
sS'_InputTag__moduleLabel'
p684
S'source'
p685
sS'_InputTag__processName'
p686
g277
sS'_InputTag__productInstance'
p687
g277
sbsg69
S'/cvmfs/cms.cern.ch/slc6_amd64_gcc481/cms/cmssw/CMSSW_7_2_0/python/PhysicsTools/HepMCCandAlgos/genParticles_cfi.py'
p688
sg676
g0
(g33
g2
Ntp689
Rp690
(dp691
g11
I00
sg19
I00
sg37
I00
sg20
I00
sbsg40
I6
sg665
g668
sg46
S'GenParticleProducer'
p692
sbsS'_Process__psets'
p693
(dp694
S'maxEvents'
p695
g0
(g28
g2
Ntp696
Rp697
(dp698
g11
I00
sg19
I00
sg20
I01
sg38
(lp699
S'input'
p700
asg665
g695
sg700
g0
(g103
g2
Ntp701
Rp702
(dp703
g11
I00
sg19
I00
sg37
I1
sg20
I00
sbsbssS'_Process__essources'
p704
(dp705
S'HepPDTESSource'
p706
g0
(cFWCore.ParameterSet.Modules
ESSource
p707
g2
Ntp708
Rp709
(dp710
g38
(lp711
S'pdtFileName'
p712
asg11
I00
sg712
g0
(cFWCore.ParameterSet.Types
FileInPath
p713
g2
Ntp714
Rp715
(dp716
g11
I00
sg19
I01
sg37
S'SimGeneral/HepPDTESSource/data/pythiaparticle.tbl'
p717
sg20
I00
sbsg20
I00
sg40
I4
sg69
S'/cvmfs/cms.cern.ch/slc6_amd64_gcc481/cms/cmssw/CMSSW_7_2_0/python/SimGeneral/HepPDTESSource/pythiapdt_cfi.py'
p718
sg665
g706
sg46
g706
sbssg639
g626
sS'randomEngineStateProducer'
p719
g0
(g669
g2
Ntp720
Rp721
(dp722
g38
(lp723
sg11
I00
sg20
I00
sg40
I170
sg69
S'/cvmfs/cms.cern.ch/slc6_amd64_gcc481/cms/cmssw/CMSSW_7_2_0/python/IOMC/RandomEngine/IOMC_cff.py'
p724
sg665
g719
sg46
S'RandomEngineStateProducer'
p725
sbsg695
g697
sg685
g626
sS'_Process__vpsets'
p726
(dp727
sg290
g292
sS'_Process__name'
p728
S'GENP'
p729
sg666
g656
sS'_cloneToObjectDict'
p730
(dp731
I30073744
g721
sI30083088
g656
sI29959504
g709
sI30083536
g0
(cFWCore.ParameterSet.SequenceTypes
Path
p732
g2
Ntp733
Rp734
(dp735
g11
I00
sg647
g0
(g648
g2
Ntp736
Rp737
(dp738
g652
(lp739
g671
asbsg20
I00
sg665
S'genps'
p740
sbsI30075472
g697
sI30083664
g671
sI30083856
g645
ssg740
g734
sS'_Process__esprefers'
p741
(dp742
sS'_Process__schedule'
p743
NsS'_Process__partialschedules'
p744
(dp745
sg706
g709
sS'_Process__outputmodules'
p746
(dp747
g666
g656
ssS'_Process__analyzers'
p748
(dp749
sS'_Process__InExtendCall'
p750
I00
sS'_Process__producers'
p751
(dp752
g668
g671
sg719
g721
ssS'_Process__filters'
p753
(dp754
sS'_Process__looper'
p755
NsS'_Process__endpaths'
p756
g0
(cFWCore.ParameterSet.DictTypes
SortedKeysDict
p757
c__builtin__
dict
p758
(dp759
g642
g645
stp760
Rp761
(dp762
S'list'
p763
(lp764
g642
asbsS'_Process__esproducers'
p765
(dp766
sS'_Process__paths'
p767
g0
(g757
g758
(dp768
g740
g734
stp769
Rp770
(dp771
g763
(lp772
g740
asbsS'_Process__subProcess'
p773
NsS'_Process__isStrict'
p774
I00
sb.